(i__main__
AI
p0
(dp1
S'OC_SB_7x'
p2
(lp3
S'AA'
p4
aS'KK'
p5
aS'QQ'
p6
asS'ThC_BTN_call'
p7
(lp8
S'88'
p9
aS'77'
p10
aS'66'
p11
aS'55'
p12
aS'44'
p13
aS'33'
p14
aS'22'
p15
aS'KQs'
p16
aS'QJs'
p17
aS'JTs'
p18
aS'9Ts'
p19
aS'89s'
p20
aS'78s'
p21
aS'67s'
p22
aS'56s'
p23
aS'45s'
p24
aS'34s'
p25
aS'23s'
p26
aS'KJs'
p27
aS'QTs'
p28
aS'J9s'
p29
aS'8Ts'
p30
aS'79s'
p31
aS'68s'
p32
aS'57s'
p33
aS'46s'
p34
aS'35s'
p35
aS'24s'
p36
aS'KTs'
p37
aS'Q9s'
p38
aS'J8s'
p39
aS'7Ts'
p40
aS'69s'
p41
aS'58s'
p42
aS'47s'
p43
aS'36s'
p44
aS'25s'
p45
aS'AJs'
p46
aS'ATs'
p47
aS'6As'
p48
aS'7As'
p49
aS'8As'
p50
aS'9As'
p51
aS'2As'
p52
aS'3As'
p53
aS'4As'
p54
aS'5As'
p55
asS'OC_BTN_call'
p56
(lp57
g23
ag24
ag25
ag26
ag33
ag34
ag35
ag36
ag37
ag38
ag39
ag40
ag41
ag42
ag43
ag44
ag45
ag48
ag49
ag50
ag51
ag52
ag53
ag54
ag55
asS'OC_CO_6x'
p58
g3
sS'big_aces'
p59
(lp60
S'AKs'
p61
aS'AK'
p62
aS'AQ'
p63
aS'AQs'
p64
asS'OC_MP_5x'
p65
(lp66
g61
aS'JJ'
p67
asS'suited_connectors_one_gap_1'
p68
(lp69
g27
ag28
ag29
asS'suited_connectors_one_gap_3'
p70
(lp71
g33
ag34
ag35
ag36
asS'suited_connectors_one_gap_2'
p72
(lp73
g30
ag31
ag32
asS'OC_MP_3x'
p74
(lp75
g9
ag10
ag46
ag47
asS'FC_SB_20x'
p76
g3
sS'suited_connectors_1'
p77
(lp78
g16
ag17
ag18
asS'OC_BB_7x'
p79
g3
sS'suited_connectors_two_gap_3'
p80
(lp81
g43
ag44
ag45
asS'suited_connectors_two_gap_2'
p82
(lp83
g40
ag41
ag42
asS'suited_connectors_3'
p84
(lp85
g23
ag24
ag25
ag26
asS'suited_connectors_2'
p86
(lp87
g19
ag20
ag21
ag22
asS'suited_connectors_two_gap'
p88
(lp89
g37
ag38
ag39
ag40
ag41
ag42
ag43
ag44
ag45
asS'suited_connectors'
p90
(lp91
g16
ag17
ag18
ag19
ag20
ag21
ag22
ag23
ag24
ag25
ag26
asS'ThC_BTN_10x'
p92
g3
sS'FC_BB_20x'
p93
g3
sS'ThC_BTN_6x'
p94
(lp95
g67
aS'TT'
p96
aS'99'
p97
ag61
ag62
ag63
ag64
asS'BB'
p98
(dp99
S'limpers'
p100
(lp101
(lp102
(g3
I7
tp103
a((lp104
g67
ag96
ag97
ag9
ag10
ag11
ag12
ag13
ag14
ag15
ag16
ag17
ag18
ag19
ag20
ag21
ag22
ag23
ag24
ag25
ag26
ag27
ag28
ag29
ag30
ag31
ag32
ag33
ag34
ag35
ag36
ag37
ag38
ag39
ag40
ag41
ag42
ag43
ag44
ag45
ag61
ag62
ag63
ag64
ag46
ag47
ag48
ag49
ag50
ag51
ag52
ag53
ag54
ag55
aS'call'
p105
tp106
aa(lp107
(g3
I10
tp108
a((lp109
g67
ag96
ag97
ag9
ag10
ag11
ag12
ag13
ag14
ag15
ag16
ag17
ag18
ag19
ag20
ag21
ag22
ag23
ag24
ag25
ag26
ag27
ag28
ag29
ag30
ag31
ag32
ag33
ag34
ag35
ag36
ag37
ag38
ag39
ag40
ag41
ag42
ag43
ag44
ag45
ag61
ag62
ag63
ag64
ag46
ag47
ag48
ag49
ag50
ag51
ag52
ag53
ag54
ag55
ag105
tp110
aa(lp111
(g3
I15
tp112
a((lp113
g67
ag96
ag97
ag9
ag10
ag11
ag12
ag13
ag14
ag15
ag16
ag17
ag18
ag19
ag20
ag21
ag22
ag23
ag24
ag25
ag26
ag27
ag28
ag29
ag30
ag31
ag32
ag33
ag34
ag35
ag36
ag37
ag38
ag39
ag40
ag41
ag42
ag43
ag44
ag45
ag61
ag62
ag63
ag64
ag46
ag47
ag48
ag49
ag50
ag51
ag52
ag53
ag54
ag55
ag105
tp114
aa(lp115
(g3
I20
tp116
a((lp117
g67
ag96
ag97
ag9
ag10
ag11
ag12
ag13
ag14
ag15
ag16
ag17
ag18
ag19
ag20
ag21
ag22
ag23
ag24
ag25
ag26
ag27
ag28
ag29
ag30
ag31
ag32
ag33
ag34
ag35
ag36
ag37
ag38
ag39
ag40
ag41
ag42
ag43
ag44
ag45
ag61
ag62
ag63
ag64
ag46
ag47
ag48
ag49
ag50
ag51
ag52
ag53
ag54
ag55
ag105
tp118
aa(lp119
(g3
I25
tp120
a((lp121
g67
ag96
ag97
ag9
ag10
ag11
ag12
ag13
ag14
ag15
ag16
ag17
ag18
ag19
ag20
ag21
ag22
ag23
ag24
ag25
ag26
ag27
ag28
ag29
ag30
ag31
ag32
ag33
ag34
ag35
ag36
ag37
ag38
ag39
ag40
ag41
ag42
ag43
ag44
ag45
ag61
ag62
ag63
ag64
ag46
ag47
ag48
ag49
ag50
ag51
ag52
ag53
ag54
ag55
ag105
tp122
aasS'raisers'
p123
(lp124
(lp125
(lp126
(I5
(lp127
(g3
I2
tp128
atp129
a(I4
(lp130
(g3
I2
tp131
a((lp132
g67
ag96
ag97
ag9
ag10
ag11
ag12
ag13
ag14
ag15
ag19
ag20
ag21
ag22
ag30
ag31
ag32
ag61
ag62
ag105
tp133
atp134
a(I3
(lp135
((lp136
g4
ag5
ag6
ag61
ag62
aI2
tp137
a((lp138
g67
ag96
ag97
ag9
ag10
ag11
ag12
ag13
ag14
ag15
ag16
ag17
ag18
ag19
ag20
ag21
ag22
ag27
ag28
ag29
ag30
ag31
ag32
ag61
ag62
ag63
ag64
ag105
tp139
atp140
a(I2
(lp141
((lp142
g4
ag5
ag6
ag67
ag96
ag97
ag61
ag62
ag63
ag64
aI2
tp143
a((lp144
g9
ag10
ag11
ag12
ag13
ag14
ag15
ag16
ag17
ag18
ag19
ag20
ag21
ag22
ag27
ag28
ag29
ag30
ag31
ag32
ag46
ag47
ag52
ag53
ag54
ag55
ag105
tp145
atp146
aa(lp147
(I7
(lp148
(g3
I3
tp149
atp150
a(I5
(lp151
(g3
I2
tp152
a((lp153
g61
ag105
tp154
atp155
a(I4
(lp156
(g3
I2
tp157
a((lp158
g67
ag96
ag97
ag61
ag62
ag63
ag64
ag105
tp159
atp160
a(I3
(lp161
(g3
I2
tp162
a((lp163
g67
ag96
ag97
ag9
ag10
ag11
ag12
ag13
ag14
ag15
ag19
ag20
ag21
ag22
ag30
ag31
ag32
ag61
ag62
ag63
ag64
ag105
tp164
atp165
a(I2
(lp166
((lp167
g4
ag5
ag6
ag61
ag62
aI2
tp168
a((lp169
g67
ag96
ag97
ag9
ag10
ag11
ag12
ag13
ag14
ag15
ag16
ag17
ag18
ag19
ag20
ag21
ag22
ag23
ag24
ag25
ag26
ag27
ag28
ag29
ag30
ag31
ag32
ag33
ag34
ag35
ag36
ag37
ag38
ag39
ag40
ag41
ag42
ag43
ag44
ag45
ag46
ag47
ag48
ag49
ag50
ag51
ag52
ag53
ag54
ag55
ag64
ag63
ag105
tp170
atp171
aa(lp172
(I7
(lp173
(g3
I3
tp174
atp175
a(I5
(lp176
(g3
I2
tp177
a((lp178
g61
ag105
tp179
atp180
a(I4
(lp181
(g3
I2
tp182
a((lp183
g67
ag96
ag97
ag61
ag62
ag63
ag64
ag105
tp184
atp185
a(I3
(lp186
(g3
I2
tp187
a((lp188
g67
ag96
ag97
ag9
ag10
ag11
ag12
ag13
ag14
ag15
ag19
ag20
ag21
ag22
ag30
ag31
ag32
ag61
ag62
ag63
ag64
ag105
tp189
atp190
a(I2
(lp191
((lp192
g4
ag5
ag6
ag61
ag62
aI2
tp193
a((lp194
g67
ag96
ag97
ag9
ag10
ag11
ag12
ag13
ag14
ag15
ag16
ag17
ag18
ag19
ag20
ag21
ag22
ag23
ag24
ag25
ag26
ag27
ag28
ag29
ag30
ag31
ag32
ag33
ag34
ag35
ag36
ag37
ag38
ag39
ag40
ag41
ag42
ag43
ag44
ag45
ag46
ag47
ag48
ag49
ag50
ag51
ag52
ag53
ag54
ag55
ag64
ag63
ag105
tp195
atp196
aaassS'TC_CO_call'
p197
(lp198
g9
ag10
ag11
ag12
ag13
ag14
ag15
ag16
ag17
ag18
ag19
ag20
ag21
ag22
ag23
ag24
ag25
ag26
ag27
ag28
ag29
ag30
ag31
ag32
ag33
ag34
ag35
ag36
ag37
ag38
ag39
ag40
ag41
ag42
ag43
ag44
ag45
ag46
ag47
ag48
ag49
ag50
ag51
ag52
ag53
ag54
ag55
asS'FiC_BB_call'
p199
g121
sS'UO_MP_3x'
p200
(lp201
g4
ag5
ag6
ag67
ag96
ag97
ag9
ag10
ag16
ag17
ag18
ag19
ag20
ag21
ag22
ag46
ag47
ag61
ag62
ag63
ag64
asS'FC_SB_call'
p202
(lp203
g67
ag96
ag97
ag9
ag10
ag11
ag12
ag13
ag14
ag15
ag16
ag17
ag18
ag19
ag20
ag21
ag22
ag23
ag24
ag25
ag26
ag27
ag28
ag29
ag30
ag31
ag32
ag33
ag34
ag35
ag36
ag37
ag38
ag39
ag40
ag41
ag42
ag43
ag44
ag45
ag61
ag62
ag63
ag64
ag46
ag47
ag48
ag49
ag50
ag51
ag52
ag53
ag54
ag55
asS'TC_SB_call'
p204
(lp205
g67
ag96
ag97
ag9
ag10
ag11
ag12
ag13
ag14
ag15
ag16
ag17
ag18
ag19
ag20
ag21
ag22
ag23
ag24
ag25
ag26
ag27
ag28
ag29
ag30
ag31
ag32
ag33
ag34
ag35
ag36
ag37
ag38
ag39
ag40
ag41
ag42
ag43
ag44
ag45
ag61
ag62
ag63
ag64
ag46
ag47
ag48
ag49
ag50
ag51
ag52
ag53
ag54
ag55
asS'OC_BTN_4x'
p206
(lp207
g67
ag96
ag97
ag61
ag62
ag63
ag64
asS'TC_CO_6x'
p208
(lp209
g67
ag96
ag97
ag61
ag62
ag63
ag64
asS'suited_aces'
p210
(lp211
g46
ag47
ag48
ag49
ag50
ag51
ag52
ag53
ag54
ag55
asS'OC_CO_4x'
p212
(lp213
g96
ag97
ag62
ag64
asS'ThC_SB_15x'
p214
g3
sS'master'
p215
(dp216
S'CO'
p217
(dp218
g100
(lp219
(lp220
(g3
I6
tp221
a((lp222
g61
ag67
aI5
tp223
a(g213
I4
tp224
a((lp225
g9
ag10
ag46
ag47
aI3
tp226
a((lp227
g11
ag12
ag13
ag14
ag15
ag16
ag17
ag18
ag19
ag20
ag21
ag22
ag27
ag28
ag29
ag30
ag31
ag32
ag52
ag53
ag54
ag55
ag105
tp228
aa(lp229
(g3
I8
tp230
a(g209
I6
tp231
a(g198
g105
tp232
aasS'unopened'
p233
(lp234
((lp235
g4
ag5
ag6
ag67
ag96
ag97
ag9
ag10
ag11
ag12
ag13
ag14
ag15
ag16
ag17
ag18
ag19
ag20
ag21
ag22
ag27
ag28
ag29
ag30
ag31
ag32
ag46
ag47
ag23
ag24
ag25
ag26
ag61
ag62
ag63
ag64
aI3
tp236
asg123
(lp237
(lp238
(lp239
(I5
(lp240
(g3
I2
tp241
atp242
a(I4
(lp243
(g3
I2
tp244
a((lp245
g67
ag96
ag97
ag9
ag10
ag11
ag12
ag13
ag14
ag15
ag19
ag20
ag21
ag22
ag30
ag31
ag32
ag61
ag62
ag105
tp246
atp247
a(I3
(lp248
((lp249
g4
ag5
ag6
ag61
ag62
aI2
tp250
a((lp251
g67
ag96
ag97
ag9
ag10
ag11
ag12
ag13
ag14
ag15
ag16
ag17
ag18
ag19
ag20
ag21
ag22
ag27
ag28
ag29
ag30
ag31
ag32
ag61
ag62
ag63
ag64
ag105
tp252
atp253
a(I2
(lp254
((lp255
g4
ag5
ag6
ag67
ag96
ag97
ag61
ag62
ag63
ag64
aI2
tp256
a((lp257
g9
ag10
ag11
ag12
ag13
ag14
ag15
ag16
ag17
ag18
ag19
ag20
ag21
ag22
ag27
ag28
ag29
ag30
ag31
ag32
ag46
ag47
ag52
ag53
ag54
ag55
ag105
tp258
atp259
aa(lp260
(I7
(lp261
(g3
I3
tp262
atp263
a(I5
(lp264
(g3
I2
tp265
a((lp266
g61
ag105
tp267
atp268
a(I4
(lp269
(g3
I2
tp270
a((lp271
g67
ag96
ag97
ag61
ag62
ag63
ag64
ag105
tp272
atp273
a(I3
(lp274
(g3
I2
tp275
a((lp276
g67
ag96
ag97
ag9
ag10
ag11
ag12
ag13
ag14
ag15
ag19
ag20
ag21
ag22
ag30
ag31
ag32
ag61
ag62
ag63
ag64
ag105
tp277
atp278
a(I2
(lp279
((lp280
g4
ag5
ag6
ag61
ag62
aI2
tp281
a((lp282
g67
ag96
ag97
ag9
ag10
ag11
ag12
ag13
ag14
ag15
ag16
ag17
ag18
ag19
ag20
ag21
ag22
ag23
ag24
ag25
ag26
ag27
ag28
ag29
ag30
ag31
ag32
ag33
ag34
ag35
ag36
ag37
ag38
ag39
ag40
ag41
ag42
ag43
ag44
ag45
ag46
ag47
ag48
ag49
ag50
ag51
ag52
ag53
ag54
ag55
ag64
ag63
ag105
tp283
atp284
aaassS'UTG'
p285
(dp286
g233
(lp287
((lp288
g4
ag5
ag6
ag67
ag96
ag97
ag9
ag10
ag61
ag62
ag63
ag64
aI3
tp289
a((lp290
g11
ag12
ag13
ag14
ag15
ag16
ag17
ag18
ag19
ag20
ag21
ag22
ag30
ag31
ag32
ag52
ag53
ag54
ag55
ag46
ag47
aI2
tp291
assg98
g99
sS'MP'
p292
(dp293
g100
(lp294
(lp295
(g3
I6
tp296
a(g66
I5
tp297
a((lp298
g96
ag97
ag62
ag64
aI4
tp299
a(g75
I3
tp300
a((lp301
g11
ag12
ag13
ag14
ag15
ag16
ag17
ag18
ag19
ag20
ag21
ag22
ag27
ag28
ag29
ag30
ag31
ag32
ag52
ag53
ag54
ag55
ag105
tp302
aasg233
(lp303
(g201
I3
tp304
a((lp305
g11
ag12
ag13
ag14
ag15
ag19
ag20
ag21
ag22
ag27
ag28
ag29
ag30
ag31
ag32
ag33
ag34
ag35
ag36
ag52
ag53
ag54
ag55
aI2
tp306
asg123
(lp307
(lp308
(I5
(lp309
(g3
I2
tp310
atp311
a(I4
(lp312
(g3
I2
tp313
a((lp314
g67
ag96
ag97
ag61
ag62
ag63
ag64
ag105
tp315
atp316
a(I3
(lp317
((lp318
g4
ag5
ag6
ag61
ag62
aI2
tp319
a((lp320
g67
ag96
ag97
ag9
ag10
ag11
ag12
ag13
ag14
ag15
ag16
ag17
ag18
ag19
ag20
ag21
ag22
ag27
ag28
ag29
ag30
ag31
ag32
ag61
ag62
ag63
ag64
ag105
tp321
atp322
a(I2
(lp323
((lp324
g4
ag5
ag6
ag67
ag96
ag97
ag61
ag62
ag63
ag64
aI2
tp325
a((lp326
g9
ag10
ag11
ag12
ag13
ag14
ag15
ag16
ag17
ag18
ag19
ag20
ag21
ag22
ag27
ag28
ag29
ag30
ag31
ag32
ag46
ag47
ag52
ag53
ag54
ag55
ag105
tp327
atp328
aassS'SB'
p329
(dp330
g100
(lp331
(lp332
(g3
I7
tp333
a((lp334
g67
ag96
ag97
ag9
ag10
ag11
ag12
ag13
ag14
ag15
ag16
ag17
ag18
ag19
ag20
ag21
ag22
ag23
ag24
ag25
ag26
ag27
ag28
ag29
ag30
ag31
ag32
ag33
ag34
ag35
ag36
ag37
ag38
ag39
ag40
ag41
ag42
ag43
ag44
ag45
ag61
ag62
ag63
ag64
ag46
ag47
ag48
ag49
ag50
ag51
ag52
ag53
ag54
ag55
ag105
tp335
aa(lp336
(g3
I10
tp337
a(g205
g105
tp338
aa(lp339
(g3
I15
tp340
a((lp341
g67
ag96
ag97
ag9
ag10
ag11
ag12
ag13
ag14
ag15
ag16
ag17
ag18
ag19
ag20
ag21
ag22
ag23
ag24
ag25
ag26
ag27
ag28
ag29
ag30
ag31
ag32
ag33
ag34
ag35
ag36
ag37
ag38
ag39
ag40
ag41
ag42
ag43
ag44
ag45
ag61
ag62
ag63
ag64
ag46
ag47
ag48
ag49
ag50
ag51
ag52
ag53
ag54
ag55
ag105
tp342
aa(lp343
(g3
I20
tp344
a(g203
g105
tp345
aasg233
(lp346
((lp347
g4
ag5
ag6
ag67
ag96
ag97
ag9
ag10
ag11
ag12
ag13
ag14
ag15
ag16
ag17
ag18
ag19
ag20
ag21
ag22
ag27
ag28
ag29
ag30
ag31
ag32
ag37
ag38
ag39
ag46
ag47
ag48
ag49
ag50
ag51
ag52
ag53
ag54
ag55
ag61
ag62
ag63
ag64
aI3
tp348
asg123
(lp349
(lp350
(lp351
(I5
(lp352
(g3
I2
tp353
atp354
a(I4
(lp355
(g3
I2
tp356
a((lp357
g67
ag96
ag97
ag9
ag10
ag11
ag12
ag13
ag14
ag15
ag19
ag20
ag21
ag22
ag30
ag31
ag32
ag61
ag62
ag105
tp358
atp359
a(I3
(lp360
((lp361
g4
ag5
ag6
ag61
ag62
aI2
tp362
a((lp363
g67
ag96
ag97
ag9
ag10
ag11
ag12
ag13
ag14
ag15
ag16
ag17
ag18
ag19
ag20
ag21
ag22
ag27
ag28
ag29
ag30
ag31
ag32
ag61
ag62
ag63
ag64
ag105
tp364
atp365
a(I2
(lp366
((lp367
g4
ag5
ag6
ag67
ag96
ag97
ag61
ag62
ag63
ag64
aI2
tp368
a((lp369
g9
ag10
ag11
ag12
ag13
ag14
ag15
ag16
ag17
ag18
ag19
ag20
ag21
ag22
ag27
ag28
ag29
ag30
ag31
ag32
ag46
ag47
ag52
ag53
ag54
ag55
ag105
tp370
atp371
aa(lp372
(I7
(lp373
(g3
I3
tp374
atp375
a(I5
(lp376
(g3
I2
tp377
a((lp378
g61
ag105
tp379
atp380
a(I4
(lp381
(g3
I2
tp382
a((lp383
g67
ag96
ag97
ag61
ag62
ag63
ag64
ag105
tp384
atp385
a(I3
(lp386
(g3
I2
tp387
a((lp388
g67
ag96
ag97
ag9
ag10
ag11
ag12
ag13
ag14
ag15
ag19
ag20
ag21
ag22
ag30
ag31
ag32
ag61
ag62
ag63
ag64
ag105
tp389
atp390
a(I2
(lp391
((lp392
g4
ag5
ag6
ag61
ag62
aI2
tp393
a((lp394
g67
ag96
ag97
ag9
ag10
ag11
ag12
ag13
ag14
ag15
ag16
ag17
ag18
ag19
ag20
ag21
ag22
ag23
ag24
ag25
ag26
ag27
ag28
ag29
ag30
ag31
ag32
ag33
ag34
ag35
ag36
ag37
ag38
ag39
ag40
ag41
ag42
ag43
ag44
ag45
ag46
ag47
ag48
ag49
ag50
ag51
ag52
ag53
ag54
ag55
ag64
ag63
ag105
tp395
atp396
aa(lp397
(I7
(lp398
(g3
I3
tp399
atp400
a(I5
(lp401
(g3
I2
tp402
a((lp403
g61
ag105
tp404
atp405
a(I4
(lp406
(g3
I2
tp407
a((lp408
g67
ag96
ag97
ag61
ag62
ag63
ag64
ag105
tp409
atp410
a(I3
(lp411
(g3
I2
tp412
a((lp413
g67
ag96
ag97
ag9
ag10
ag11
ag12
ag13
ag14
ag15
ag19
ag20
ag21
ag22
ag30
ag31
ag32
ag61
ag62
ag63
ag64
ag105
tp414
atp415
a(I2
(lp416
((lp417
g4
ag5
ag6
ag61
ag62
aI2
tp418
a((lp419
g67
ag96
ag97
ag9
ag10
ag11
ag12
ag13
ag14
ag15
ag16
ag17
ag18
ag19
ag20
ag21
ag22
ag23
ag24
ag25
ag26
ag27
ag28
ag29
ag30
ag31
ag32
ag33
ag34
ag35
ag36
ag37
ag38
ag39
ag40
ag41
ag42
ag43
ag44
ag45
ag46
ag47
ag48
ag49
ag50
ag51
ag52
ag53
ag54
ag55
ag64
ag63
ag105
tp420
atp421
aaassS'BTN'
p422
(dp423
g100
(lp424
(lp425
(g3
I5
tp426
a(g207
I4
tp427
a(g207
I3
tp428
a(g57
g105
tp429
aa(lp430
(g3
I7
tp431
a((lp432
g67
ag96
ag97
ag61
ag62
ag63
ag64
aI5
tp433
a((lp434
g9
ag10
ag11
ag12
ag13
ag14
ag15
ag16
ag17
ag18
ag19
ag20
ag21
ag22
ag23
ag24
ag25
ag26
ag27
ag28
ag29
ag30
ag31
ag32
ag33
ag34
ag35
ag36
ag37
ag38
ag39
ag40
ag41
ag42
ag43
ag44
ag45
ag46
ag47
ag48
ag49
ag50
ag51
ag52
ag53
ag54
ag55
ag105
tp435
aa(lp436
(g3
I10
tp437
a(g95
I6
tp438
a(g8
g105
tp439
aasg233
(lp440
((lp441
g4
ag5
ag6
ag67
ag96
ag97
ag9
ag10
ag11
ag12
ag13
ag14
ag15
ag16
ag17
ag18
ag19
ag20
ag21
ag22
ag23
ag24
ag25
ag26
ag27
ag28
ag29
ag30
ag31
ag32
ag33
ag34
ag35
ag36
ag37
ag38
ag39
ag40
ag41
ag42
ag43
ag44
ag45
ag46
ag47
ag48
ag49
ag50
ag51
ag52
ag53
ag54
ag55
ag61
ag62
ag63
ag64
aI3
tp442
asg123
(lp443
(lp444
(lp445
(I5
(lp446
(g3
I2
tp447
atp448
a(I4
(lp449
(g3
I2
tp450
a((lp451
g67
ag96
ag97
ag9
ag10
ag11
ag12
ag13
ag14
ag15
ag19
ag20
ag21
ag22
ag30
ag31
ag32
ag61
ag62
ag105
tp452
atp453
a(I3
(lp454
((lp455
g4
ag5
ag6
ag61
ag62
aI2
tp456
a((lp457
g67
ag96
ag97
ag9
ag10
ag11
ag12
ag13
ag14
ag15
ag16
ag17
ag18
ag19
ag20
ag21
ag22
ag27
ag28
ag29
ag30
ag31
ag32
ag61
ag62
ag63
ag64
ag105
tp458
atp459
a(I2
(lp460
((lp461
g4
ag5
ag6
ag67
ag96
ag97
ag61
ag62
ag63
ag64
aI2
tp462
a((lp463
g9
ag10
ag11
ag12
ag13
ag14
ag15
ag16
ag17
ag18
ag19
ag20
ag21
ag22
ag27
ag28
ag29
ag30
ag31
ag32
ag46
ag47
ag52
ag53
ag54
ag55
ag105
tp464
atp465
aa(lp466
(I7
(lp467
(g3
I3
tp468
atp469
a(I5
(lp470
(g3
I2
tp471
a((lp472
g61
ag105
tp473
atp474
a(I4
(lp475
(g3
I2
tp476
a((lp477
g67
ag96
ag97
ag61
ag62
ag63
ag64
ag105
tp478
atp479
a(I3
(lp480
(g3
I2
tp481
a((lp482
g67
ag96
ag97
ag9
ag10
ag11
ag12
ag13
ag14
ag15
ag19
ag20
ag21
ag22
ag30
ag31
ag32
ag61
ag62
ag63
ag64
ag105
tp483
atp484
a(I2
(lp485
((lp486
g4
ag5
ag6
ag61
ag62
aI2
tp487
a((lp488
g67
ag96
ag97
ag9
ag10
ag11
ag12
ag13
ag14
ag15
ag16
ag17
ag18
ag19
ag20
ag21
ag22
ag23
ag24
ag25
ag26
ag27
ag28
ag29
ag30
ag31
ag32
ag33
ag34
ag35
ag36
ag37
ag38
ag39
ag40
ag41
ag42
ag43
ag44
ag45
ag46
ag47
ag48
ag49
ag50
ag51
ag52
ag53
ag54
ag55
ag64
ag63
ag105
tp489
atp490
aa(lp491
(I7
(lp492
(g3
I3
tp493
atp494
a(I5
(lp495
(g3
I2
tp496
a((lp497
g61
ag105
tp498
atp499
a(I4
(lp500
(g3
I2
tp501
a((lp502
g67
ag96
ag97
ag61
ag62
ag63
ag64
ag105
tp503
atp504
a(I3
(lp505
(g3
I2
tp506
a((lp507
g67
ag96
ag97
ag9
ag10
ag11
ag12
ag13
ag14
ag15
ag19
ag20
ag21
ag22
ag30
ag31
ag32
ag61
ag62
ag63
ag64
ag105
tp508
atp509
a(I2
(lp510
((lp511
g4
ag5
ag6
ag61
ag62
aI2
tp512
a((lp513
g67
ag96
ag97
ag9
ag10
ag11
ag12
ag13
ag14
ag15
ag16
ag17
ag18
ag19
ag20
ag21
ag22
ag23
ag24
ag25
ag26
ag27
ag28
ag29
ag30
ag31
ag32
ag33
ag34
ag35
ag36
ag37
ag38
ag39
ag40
ag41
ag42
ag43
ag44
ag45
ag46
ag47
ag48
ag49
ag50
ag51
ag52
ag53
ag54
ag55
ag64
ag63
ag105
tp514
atp515
aaasssS'ThC_BB_call'
p516
g113
sS'OC_BB_call'
p517
g104
sS'FiC_BB_25x'
p518
g3
sS'suited_aces_3'
p519
(lp520
g52
ag53
ag54
ag55
asS'suited_aces_2'
p521
(lp522
g48
ag49
ag50
ag51
asS'suited_aces_1'
p523
(lp524
g46
ag47
asS'TC_CO_8x'
p525
g3
sS'OC_CO_call'
p526
g227
sS'OC_MP_6x'
p527
g3
sg217
g218
sg285
g286
sS'TC_BTN_call'
p528
g434
sS'TC_BTN_5x'
p529
g432
sS'pairs_1'
p530
g3
sS'OC_MP_4x'
p531
g298
sS'pairs_3'
p532
(lp533
g9
ag10
asS'pairs_2'
p534
(lp535
g67
ag96
ag97
asS'ThC_BB_15x'
p536
g3
sS'pairs_4'
p537
(lp538
g11
ag12
ag13
ag14
ag15
asS'OC_CO_5x'
p539
g222
sS'OC_BTN_5x'
p540
g3
sS'UO_UTG_3x'
p541
g288
sS'OC_BTN_3x'
p542
(lp543
g9
ag10
ag11
ag12
ag13
ag14
ag15
ag16
ag17
ag18
ag19
ag20
ag21
ag22
ag27
ag28
ag29
ag30
ag31
ag32
ag46
ag47
asg329
g330
sS'TC_SB_10x'
p544
g3
sS'FC_BB_call'
p545
g117
sS'OC_CO_3x'
p546
g225
sS'suited_connectors_two_gap_1'
p547
(lp548
g37
ag38
ag39
asS'TC_BTN_7x'
p549
g3
sS'pairs'
p550
(lp551
g4
ag5
ag6
ag67
ag96
ag97
ag9
ag10
ag11
ag12
ag13
ag14
ag15
asS'ThC_SB_call'
p552
g341
sS'UO_UTG_2x'
p553
g290
sS'TC_BB_10x'
p554
g3
sS'OC_MP_call'
p555
g301
sS'UO_MP_2x'
p556
g305
sS'UO_SB_3x'
p557
g347
sS'OC_SB_call'
p558
g334
sg292
g293
sS'UO_BTN_3x'
p559
g441
sS'UO_CO_3x'
p560
g235
sS'suited_connectors_one_gap'
p561
(lp562
g27
ag28
ag29
ag30
ag31
ag32
ag33
ag34
ag35
ag36
asg422
g423
sS'play_list'
p563
(lp564
g4
ag5
ag6
ag67
ag96
ag97
ag9
ag10
ag11
ag12
ag13
ag14
ag15
ag16
ag17
ag18
ag19
ag20
ag21
ag22
ag23
ag24
ag25
ag26
ag27
ag28
ag29
ag30
ag31
ag32
ag33
ag34
ag35
ag36
ag37
ag38
ag39
ag40
ag41
ag42
ag43
ag44
ag45
ag46
ag47
ag48
ag49
ag50
ag51
ag52
ag53
ag54
ag55
ag61
ag62
ag63
ag64
asS'TC_BB_call'
p565
g109
sb.